; Function Attrs: mustprogress nofree norecurse nosync nounwind willreturn memory(argmem: write) uwtable
define internal noundef zeroext i1 @"_ZNSt17_Function_handlerIFNSt7__cxx1112basic_stringIcSt11char_traitsIcESaIcEEEPKN4Json5ValueEP11cmJSONStateEZN20cmCMakePresetsErrors24INVALID_CONDITION_OBJECTEN10JsonErrors11ObjectErrorERKSt6vectorIS5_SaIS5_EEE3$_0E10_M_managerERSt9_Any_dataRKSN_St18_Manager_operation"(ptr noundef nonnull writeonly align 8 captures(none) dereferenceable(16) %0, ptr noundef nonnull align 8 dereferenceable(16) %1, i32 noundef %2) #5 align 2 personality ptr @__gxx_personality_v0 {
  switch i32 %2, label %"_ZNSt14_Function_base13_Base_managerIZN20cmCMakePresetsErrors24INVALID_CONDITION_OBJECTEN10JsonErrors11ObjectErrorERKSt6vectorINSt7__cxx1112basic_stringIcSt11char_traitsIcESaIcEEESaISA_EEE3$_0E10_M_managerERSt9_Any_dataRKSH_St18_Manager_operation.exit" [
    i32 0, label %"_ZNSt14_Function_base13_Base_managerIZN20cmCMakePresetsErrors24INVALID_CONDITION_OBJECTEN10JsonErrors11ObjectErrorERKSt6vectorINSt7__cxx1112basic_stringIcSt11char_traitsIcESaIcEEESaISA_EEE3$_0E10_M_managerERSt9_Any_dataRKSH_St18_Manager_operation.exit.sink.split"
    i32 1, label %4
  ]

4:                                                ; preds = %3
  br label %"_ZNSt14_Function_base13_Base_managerIZN20cmCMakePresetsErrors24INVALID_CONDITION_OBJECTEN10JsonErrors11ObjectErrorERKSt6vectorINSt7__cxx1112basic_stringIcSt11char_traitsIcESaIcEEESaISA_EEE3$_0E10_M_managerERSt9_Any_dataRKSH_St18_Manager_operation.exit.sink.split"

"_ZNSt14_Function_base13_Base_managerIZN20cmCMakePresetsErrors24INVALID_CONDITION_OBJECTEN10JsonErrors11ObjectErrorERKSt6vectorINSt7__cxx1112basic_stringIcSt11char_traitsIcESaIcEEESaISA_EEE3$_0E10_M_managerERSt9_Any_dataRKSH_St18_Manager_operation.exit.sink.split": ; preds = %3, %4
  %.sink = phi ptr [ %1, %4 ], [ @"_ZTIZN20cmCMakePresetsErrors24INVALID_CONDITION_OBJECTEN10JsonErrors11ObjectErrorERKSt6vectorINSt7__cxx1112basic_stringIcSt11char_traitsIcESaIcEEESaIS8_EEE3$_0", %3 ]
  store ptr %.sink, ptr %0, align 8, !tbaa !239
  br label %"_ZNSt14_Function_base13_Base_managerIZN20cmCMakePresetsErrors24INVALID_CONDITION_OBJECTEN10JsonErrors11ObjectErrorERKSt6vectorINSt7__cxx1112basic_stringIcSt11char_traitsIcESaIcEEESaISA_EEE3$_0E10_M_managerERSt9_Any_dataRKSH_St18_Manager_operation.exit"

"_ZNSt14_Function_base13_Base_managerIZN20cmCMakePresetsErrors24INVALID_CONDITION_OBJECTEN10JsonErrors11ObjectErrorERKSt6vectorINSt7__cxx1112basic_stringIcSt11char_traitsIcESaIcEEESaISA_EEE3$_0E10_M_managerERSt9_Any_dataRKSH_St18_Manager_operation.exit": ; preds = %"_ZNSt14_Function_base13_Base_managerIZN20cmCMakePresetsErrors24INVALID_CONDITION_OBJECTEN10JsonErrors11ObjectErrorERKSt6vectorINSt7__cxx1112basic_stringIcSt11char_traitsIcESaIcEEESaISA_EEE3$_0E10_M_managerERSt9_Any_dataRKSH_St18_Manager_operation.exit.sink.split", %3
  ret i1 false
}